target datalayout = "e-m:e-p270:32:32-p271:32:32-p272:64:64-i64:64-i128:128-f80:128-n8:16:32:64-S128"
target triple = "x86_64-pc-linux-gnu"

%struct.Rwt_Node_t_ = type { i32, i32, i32, ptr, ptr, ptr }
%struct.Rwt_Man_t_ = type { i32, ptr, ptr, ptr, ptr, ptr, ptr, ptr, ptr, ptr, ptr, ptr, i32, i32, i32, i32, i32, ptr, ptr, ptr, ptr, ptr, ptr, ptr, i32, i32, i32, [222 x i32], i32, i32, i32, i64, i64, i64, i64, i64, i64, i64, i64 }
%struct.Vec_Ptr_t_ = type { i32, i32, ptr }

; Function Attrs: inlinehint nounwind uwtable
define internal ptr @Vec_PtrEntry(ptr noundef %0, i32 noundef %1) #3 {
  %3 = alloca ptr, align 8
  %4 = alloca i32, align 4
  store ptr %0, ptr %3, align 8, !tbaa !36
  store i32 %1, ptr %4, align 4, !tbaa !17
  %5 = load ptr, ptr %3, align 8, !tbaa !36
  %6 = getelementptr inbounds nuw %struct.Vec_Ptr_t_, ptr %5, i32 0, i32 2
  %7 = load ptr, ptr %6, align 8, !tbaa !39
  %8 = load i32, ptr %4, align 4, !tbaa !17
  %9 = sext i32 %8 to i64
  %10 = getelementptr inbounds ptr, ptr %7, i64 %9
  %11 = load ptr, ptr %10, align 8, !tbaa !37
  ret ptr %11
}

; Function Attrs: inlinehint nounwind uwtable
define internal i32 @Vec_PtrSize(ptr noundef %0) #3 {
  %2 = alloca ptr, align 8
  store ptr %0, ptr %2, align 8, !tbaa !36
  %3 = load ptr, ptr %2, align 8, !tbaa !36
  %4 = getelementptr inbounds nuw %struct.Vec_Ptr_t_, ptr %3, i32 0, i32 1
  %5 = load i32, ptr %4, align 4, !tbaa !29
  ret i32 %5
}

; Function Attrs: nounwind uwtable
define void @Rwt_ManIncTravId(ptr noundef %0) #0 {
  %2 = alloca ptr, align 8
  %3 = alloca ptr, align 8
  %4 = alloca i32, align 4
  %5 = alloca i32, align 4
  store ptr %0, ptr %2, align 8, !tbaa !15
  call void @llvm.lifetime.start.p0(i64 8, ptr %3) #10
  call void @llvm.lifetime.start.p0(i64 4, ptr %4) #10
  %6 = load ptr, ptr %2, align 8, !tbaa !15
  %7 = getelementptr inbounds nuw %struct.Rwt_Man_t_, ptr %6, i32 0, i32 12
  %8 = load i32, ptr %7, align 8, !tbaa !48
  %9 = add nsw i32 %8, 1
  store i32 %9, ptr %7, align 8, !tbaa !48
  %10 = icmp ult i32 %8, -1879048193
  br i1 %10, label %11, label %12

11:                                               ; preds = %1
  store i32 1, ptr %5, align 4
  br label %37

12:                                               ; preds = %1
  store i32 0, ptr %4, align 4, !tbaa !17
  br label %13

13:                                               ; preds = %31, %12
  %14 = load i32, ptr %4, align 4, !tbaa !17
  %15 = load ptr, ptr %2, align 8, !tbaa !15
  %16 = getelementptr inbounds nuw %struct.Rwt_Man_t_, ptr %15, i32 0, i32 8
  %17 = load ptr, ptr %16, align 8, !tbaa !28
  %18 = call i32 @Vec_PtrSize(ptr noundef %17)
  %19 = icmp slt i32 %14, %18
  br i1 %19, label %20, label %26

20:                                               ; preds = %13
  %21 = load ptr, ptr %2, align 8, !tbaa !15
  %22 = getelementptr inbounds nuw %struct.Rwt_Man_t_, ptr %21, i32 0, i32 8
  %23 = load ptr, ptr %22, align 8, !tbaa !28
  %24 = load i32, ptr %4, align 4, !tbaa !17
  %25 = call ptr @Vec_PtrEntry(ptr noundef %23, i32 noundef %24)
  store ptr %25, ptr %3, align 8, !tbaa !8
  br label %26

26:                                               ; preds = %20, %13
  %27 = phi i1 [ false, %13 ], [ true, %20 ]
  br i1 %27, label %28, label %34

28:                                               ; preds = %26
  %29 = load ptr, ptr %3, align 8, !tbaa !8
  %30 = getelementptr inbounds nuw %struct.Rwt_Node_t_, ptr %29, i32 0, i32 1
  store i32 0, ptr %30, align 4, !tbaa !32
  br label %31

31:                                               ; preds = %28
  %32 = load i32, ptr %4, align 4, !tbaa !17
  %33 = add nsw i32 %32, 1
  store i32 %33, ptr %4, align 4, !tbaa !17
  br label %13, !llvm.loop !49

34:                                               ; preds = %26
  %35 = load ptr, ptr %2, align 8, !tbaa !15
  %36 = getelementptr inbounds nuw %struct.Rwt_Man_t_, ptr %35, i32 0, i32 12
  store i32 1, ptr %36, align 8, !tbaa !48
  store i32 0, ptr %5, align 4
  br label %37

37:                                               ; preds = %34, %11
  call void @llvm.lifetime.end.p0(i64 4, ptr %4) #10
  call void @llvm.lifetime.end.p0(i64 8, ptr %3) #10
  %38 = load i32, ptr %5, align 4
  switch i32 %38, label %40 [
    i32 0, label %39
    i32 1, label %39
  ]

39:                                               ; preds = %37, %37
  ret void

40:                                               ; preds = %37
  unreachable
}

; Function Attrs: nounwind uwtable
define i32 @Rwt_ManNodeVolume(ptr noundef %0, ptr noundef %1, ptr noundef %2) #0 {
  %4 = alloca ptr, align 8
  %5 = alloca ptr, align 8
  %6 = alloca ptr, align 8
  %7 = alloca i32, align 4
  store ptr %0, ptr %4, align 8, !tbaa !15
  store ptr %1, ptr %5, align 8, !tbaa !8
  store ptr %2, ptr %6, align 8, !tbaa !8
  call void @llvm.lifetime.start.p0(i64 4, ptr %7) #10
  store i32 0, ptr %7, align 4, !tbaa !17
  %8 = load ptr, ptr %4, align 8, !tbaa !15
  call void @Rwt_ManIncTravId(ptr noundef %8)
  %9 = load ptr, ptr %4, align 8, !tbaa !15
  %10 = load ptr, ptr %5, align 8, !tbaa !8
  call void @Rwt_Trav_rec(ptr noundef %9, ptr noundef %10, ptr noundef %7)
  %11 = load ptr, ptr %4, align 8, !tbaa !15
  %12 = load ptr, ptr %6, align 8, !tbaa !8
  call void @Rwt_Trav_rec(ptr noundef %11, ptr noundef %12, ptr noundef %7)
  %13 = load i32, ptr %7, align 4, !tbaa !17
  call void @llvm.lifetime.end.p0(i64 4, ptr %7) #10
  ret i32 %13
}